target datalayout = "e-m:e-p270:32:32-p271:32:32-p272:64:64-i64:64-i128:128-f80:128-n8:16:32:64-S128"
target triple = "x86_64-pc-linux-gnu"

%struct.AVIOInterruptCB = type { ptr, ptr }
%struct.URLContext = type { ptr, ptr, ptr, ptr, i32, i32, i32, i32, %struct.AVIOInterruptCB, i64, ptr, ptr, i32 }
%struct.AsyncContext = type { ptr, ptr, i32, i64, i32, i32, i64, i32, i32, i32, i64, i64, %struct.RingBuffer, %union.pthread_cond_t, %union.pthread_cond_t, %union.pthread_mutex_t, i64, i32, %struct.AVIOInterruptCB }
%struct.RingBuffer = type { ptr, i32, i32 }
%union.pthread_cond_t = type { %struct.__pthread_cond_s }
%struct.__pthread_cond_s = type { %union.__atomic_wide_counter, %union.__atomic_wide_counter, [2 x i32], [2 x i32], i32, i32, [2 x i32] }
%union.__atomic_wide_counter = type { i64 }
%union.pthread_mutex_t = type { %struct.__pthread_mutex_s }
%struct.__pthread_mutex_s = type { i32, i32, i32, i32, i32, i16, i16, %struct.__pthread_internal_list }
%struct.__pthread_internal_list = type { ptr, ptr }

@.str.6 = private unnamed_addr constant [30 x i8] c"async_seek: AVSEEK_SIZE: %ld\0A\00", align 1
@.str.7 = private unnamed_addr constant [17 x i8] c"async_seek: %ld\0A\00", align 1
@.str.8 = private unnamed_addr constant [46 x i8] c"async_seek: fask_seek %ld from %d dist:%d/%d\0A\00", align 1

; Function Attrs: nounwind uwtable
define internal i32 @async_check_interrupt(ptr noundef %0) #0 {
  %2 = alloca i32, align 4
  %3 = alloca ptr, align 8
  %4 = alloca ptr, align 8
  %5 = alloca ptr, align 8
  %6 = alloca i32, align 4
  store ptr %0, ptr %3, align 8, !tbaa !27
  call void @llvm.lifetime.start.p0(i64 8, ptr %4) #7
  %7 = load ptr, ptr %3, align 8, !tbaa !27
  store ptr %7, ptr %4, align 8, !tbaa !4
  call void @llvm.lifetime.start.p0(i64 8, ptr %5) #7
  %8 = load ptr, ptr %4, align 8, !tbaa !4
  %9 = getelementptr inbounds nuw %struct.URLContext, ptr %8, i32 0, i32 2
  %10 = load ptr, ptr %9, align 8, !tbaa !16
  store ptr %10, ptr %5, align 8, !tbaa !22
  %11 = load ptr, ptr %5, align 8, !tbaa !22
  %12 = getelementptr inbounds nuw %struct.AsyncContext, ptr %11, i32 0, i32 17
  %13 = load i32, ptr %12, align 8, !tbaa !45
  %14 = icmp ne i32 %13, 0
  br i1 %14, label %15, label %16

15:                                               ; preds = %1
  store i32 1, ptr %2, align 4
  store i32 1, ptr %6, align 4
  br label %28

16:                                               ; preds = %1
  %17 = load ptr, ptr %5, align 8, !tbaa !22
  %18 = getelementptr inbounds nuw %struct.AsyncContext, ptr %17, i32 0, i32 18
  %19 = call i32 @ff_check_interrupt(ptr noundef %18)
  %20 = icmp ne i32 %19, 0
  br i1 %20, label %21, label %24

21:                                               ; preds = %16
  %22 = load ptr, ptr %5, align 8, !tbaa !22
  %23 = getelementptr inbounds nuw %struct.AsyncContext, ptr %22, i32 0, i32 17
  store i32 1, ptr %23, align 8, !tbaa !45
  br label %24

24:                                               ; preds = %21, %16
  %25 = load ptr, ptr %5, align 8, !tbaa !22
  %26 = getelementptr inbounds nuw %struct.AsyncContext, ptr %25, i32 0, i32 17
  %27 = load i32, ptr %26, align 8, !tbaa !45
  store i32 %27, ptr %2, align 4
  store i32 1, ptr %6, align 4
  br label %28

28:                                               ; preds = %24, %15
  call void @llvm.lifetime.end.p0(i64 8, ptr %5) #7
  call void @llvm.lifetime.end.p0(i64 8, ptr %4) #7
  %29 = load i32, ptr %2, align 4
  ret i32 %29
}

; Function Attrs: nounwind uwtable
define internal i32 @ring_drain(ptr noundef %0, i32 noundef %1) #0 {
  %3 = alloca ptr, align 8
  %4 = alloca i32, align 4
  store ptr %0, ptr %3, align 8, !tbaa !37
  store i32 %1, ptr %4, align 4, !tbaa !11
  %5 = load i32, ptr %4, align 4, !tbaa !11
  %6 = load ptr, ptr %3, align 8, !tbaa !37
  %7 = getelementptr inbounds nuw %struct.RingBuffer, ptr %6, i32 0, i32 2
  %8 = load i32, ptr %7, align 4, !tbaa !52
  %9 = add nsw i32 %8, %5
  store i32 %9, ptr %7, align 4, !tbaa !52
  ret i32 0
}

; Function Attrs: nounwind uwtable
define internal i32 @ring_size_of_read_back(ptr noundef %0) #0 {
  %2 = alloca ptr, align 8
  store ptr %0, ptr %2, align 8, !tbaa !37
  %3 = load ptr, ptr %2, align 8, !tbaa !37
  %4 = getelementptr inbounds nuw %struct.RingBuffer, ptr %3, i32 0, i32 2
  %5 = load i32, ptr %4, align 4, !tbaa !52
  ret i32 %5
}

; Function Attrs: nounwind uwtable
define internal i32 @ring_size(ptr noundef %0) #0 {
  %2 = alloca ptr, align 8
  store ptr %0, ptr %2, align 8, !tbaa !37
  %3 = load ptr, ptr %2, align 8, !tbaa !37
  %4 = getelementptr inbounds nuw %struct.RingBuffer, ptr %3, i32 0, i32 0
  %5 = load ptr, ptr %4, align 8, !tbaa !47
  %6 = call i64 @av_fifo_can_read(ptr noundef %5)
  %7 = load ptr, ptr %2, align 8, !tbaa !37
  %8 = getelementptr inbounds nuw %struct.RingBuffer, ptr %7, i32 0, i32 2
  %9 = load i32, ptr %8, align 4, !tbaa !52
  %10 = sext i32 %9 to i64
  %11 = sub i64 %6, %10
  %12 = trunc i64 %11 to i32
  ret i32 %12
}

; Function Attrs: nounwind uwtable
define internal i64 @async_seek(ptr noundef %0, i64 noundef %1, i32 noundef %2) #0 {
  %4 = alloca i64, align 8
  %5 = alloca ptr, align 8
  %6 = alloca i64, align 8
  %7 = alloca i32, align 4
  %8 = alloca ptr, align 8
  %9 = alloca ptr, align 8
  %10 = alloca i64, align 8
  %11 = alloca i64, align 8
  %12 = alloca i32, align 4
  %13 = alloca i32, align 4
  %14 = alloca i32, align 4
  %15 = alloca i32, align 4
  store ptr %0, ptr %5, align 8, !tbaa !4
  store i64 %1, ptr %6, align 8, !tbaa !36
  store i32 %2, ptr %7, align 4, !tbaa !11
  call void @llvm.lifetime.start.p0(i64 8, ptr %8) #7
  %16 = load ptr, ptr %5, align 8, !tbaa !4
  %17 = getelementptr inbounds nuw %struct.URLContext, ptr %16, i32 0, i32 2
  %18 = load ptr, ptr %17, align 8, !tbaa !16
  store ptr %18, ptr %8, align 8, !tbaa !22
  call void @llvm.lifetime.start.p0(i64 8, ptr %9) #7
  %19 = load ptr, ptr %8, align 8, !tbaa !22
  %20 = getelementptr inbounds nuw %struct.AsyncContext, ptr %19, i32 0, i32 12
  store ptr %20, ptr %9, align 8, !tbaa !37
  call void @llvm.lifetime.start.p0(i64 8, ptr %10) #7
  call void @llvm.lifetime.start.p0(i64 8, ptr %11) #7
  call void @llvm.lifetime.start.p0(i64 4, ptr %12) #7
  call void @llvm.lifetime.start.p0(i64 4, ptr %13) #7
  %21 = load i32, ptr %7, align 4, !tbaa !11
  %22 = icmp eq i32 %21, 65536
  br i1 %22, label %23, label %31

23:                                               ; preds = %3
  %24 = load ptr, ptr %5, align 8, !tbaa !4
  %25 = load ptr, ptr %8, align 8, !tbaa !22
  %26 = getelementptr inbounds nuw %struct.AsyncContext, ptr %25, i32 0, i32 11
  %27 = load i64, ptr %26, align 8, !tbaa !34
  call void (ptr, i32, ptr, ...) @av_log(ptr noundef %24, i32 noundef 56, ptr noundef @.str.6, i64 noundef %27)
  %28 = load ptr, ptr %8, align 8, !tbaa !22
  %29 = getelementptr inbounds nuw %struct.AsyncContext, ptr %28, i32 0, i32 11
  %30 = load i64, ptr %29, align 8, !tbaa !34
  store i64 %30, ptr %4, align 8
  store i32 1, ptr %14, align 4
  br label %197

31:                                               ; preds = %3
  %32 = load i32, ptr %7, align 4, !tbaa !11
  %33 = icmp eq i32 %32, 1
  br i1 %33, label %34, label %42

34:                                               ; preds = %31
  %35 = load ptr, ptr %5, align 8, !tbaa !4
  %36 = load i64, ptr %6, align 8, !tbaa !36
  call void (ptr, i32, ptr, ...) @av_log(ptr noundef %35, i32 noundef 56, ptr noundef @.str.7, i64 noundef %36)
  %37 = load i64, ptr %6, align 8, !tbaa !36
  %38 = load ptr, ptr %8, align 8, !tbaa !22
  %39 = getelementptr inbounds nuw %struct.AsyncContext, ptr %38, i32 0, i32 10
  %40 = load i64, ptr %39, align 8, !tbaa !39
  %41 = add nsw i64 %37, %40
  store i64 %41, ptr %11, align 8, !tbaa !36
  br label %51

42:                                               ; preds = %31
  %43 = load i32, ptr %7, align 4, !tbaa !11
  %44 = icmp eq i32 %43, 0
  br i1 %44, label %45, label %49

45:                                               ; preds = %42
  %46 = load ptr, ptr %5, align 8, !tbaa !4
  %47 = load i64, ptr %6, align 8, !tbaa !36
  call void (ptr, i32, ptr, ...) @av_log(ptr noundef %46, i32 noundef 56, ptr noundef @.str.7, i64 noundef %47)
  %48 = load i64, ptr %6, align 8, !tbaa !36
  store i64 %48, ptr %11, align 8, !tbaa !36
  br label %50

49:                                               ; preds = %42
  store i64 -22, ptr %4, align 8
  store i32 1, ptr %14, align 4
  br label %197

50:                                               ; preds = %45
  br label %51

51:                                               ; preds = %50, %34
  br label %52

52:                                               ; preds = %51
  %53 = load i64, ptr %11, align 8, !tbaa !36
  %54 = icmp slt i64 %53, 0
  br i1 %54, label %55, label %56

55:                                               ; preds = %52
  store i64 -22, ptr %4, align 8
  store i32 1, ptr %14, align 4
  br label %197

56:                                               ; preds = %52
  %57 = load ptr, ptr %9, align 8, !tbaa !37
  %58 = call i32 @ring_size(ptr noundef %57)
  store i32 %58, ptr %12, align 4, !tbaa !11
  %59 = load ptr, ptr %9, align 8, !tbaa !37
  %60 = call i32 @ring_size_of_read_back(ptr noundef %59)
  store i32 %60, ptr %13, align 4, !tbaa !11
  %61 = load i64, ptr %11, align 8, !tbaa !36
  %62 = load ptr, ptr %8, align 8, !tbaa !22
  %63 = getelementptr inbounds nuw %struct.AsyncContext, ptr %62, i32 0, i32 10
  %64 = load i64, ptr %63, align 8, !tbaa !39
  %65 = icmp eq i64 %61, %64
  br i1 %65, label %66, label %70

66:                                               ; preds = %56
  %67 = load ptr, ptr %8, align 8, !tbaa !22
  %68 = getelementptr inbounds nuw %struct.AsyncContext, ptr %67, i32 0, i32 10
  %69 = load i64, ptr %68, align 8, !tbaa !39
  store i64 %69, ptr %4, align 8
  store i32 1, ptr %14, align 4
  br label %197

70:                                               ; preds = %56
  %71 = load i64, ptr %11, align 8, !tbaa !36
  %72 = load ptr, ptr %8, align 8, !tbaa !22
  %73 = getelementptr inbounds nuw %struct.AsyncContext, ptr %72, i32 0, i32 10
  %74 = load i64, ptr %73, align 8, !tbaa !39
  %75 = load i32, ptr %13, align 4, !tbaa !11
  %76 = sext i32 %75 to i64
  %77 = sub nsw i64 %74, %76
  %78 = icmp sge i64 %71, %77
  br i1 %78, label %79, label %126

79:                                               ; preds = %70
  %80 = load i64, ptr %11, align 8, !tbaa !36
  %81 = load ptr, ptr %8, align 8, !tbaa !22
  %82 = getelementptr inbounds nuw %struct.AsyncContext, ptr %81, i32 0, i32 10
  %83 = load i64, ptr %82, align 8, !tbaa !39
  %84 = load i32, ptr %12, align 4, !tbaa !11
  %85 = sext i32 %84 to i64
  %86 = add nsw i64 %83, %85
  %87 = add nsw i64 %86, 262144
  %88 = icmp slt i64 %80, %87
  br i1 %88, label %89, label %126

89:                                               ; preds = %79
  call void @llvm.lifetime.start.p0(i64 4, ptr %15) #7
  %90 = load i64, ptr %11, align 8, !tbaa !36
  %91 = load ptr, ptr %8, align 8, !tbaa !22
  %92 = getelementptr inbounds nuw %struct.AsyncContext, ptr %91, i32 0, i32 10
  %93 = load i64, ptr %92, align 8, !tbaa !39
  %94 = sub nsw i64 %90, %93
  %95 = trunc i64 %94 to i32
  store i32 %95, ptr %15, align 4, !tbaa !11
  %96 = load ptr, ptr %5, align 8, !tbaa !4
  %97 = load i64, ptr %11, align 8, !tbaa !36
  %98 = load ptr, ptr %8, align 8, !tbaa !22
  %99 = getelementptr inbounds nuw %struct.AsyncContext, ptr %98, i32 0, i32 10
  %100 = load i64, ptr %99, align 8, !tbaa !39
  %101 = trunc i64 %100 to i32
  %102 = load i64, ptr %11, align 8, !tbaa !36
  %103 = load ptr, ptr %8, align 8, !tbaa !22
  %104 = getelementptr inbounds nuw %struct.AsyncContext, ptr %103, i32 0, i32 10
  %105 = load i64, ptr %104, align 8, !tbaa !39
  %106 = sub nsw i64 %102, %105
  %107 = trunc i64 %106 to i32
  %108 = load i32, ptr %12, align 4, !tbaa !11
  call void (ptr, i32, ptr, ...) @av_log(ptr noundef %96, i32 noundef 56, ptr noundef @.str.8, i64 noundef %97, i32 noundef %101, i32 noundef %107, i32 noundef %108)
  %109 = load i32, ptr %15, align 4, !tbaa !11
  %110 = icmp sgt i32 %109, 0
  br i1 %110, label %111, label %115

111:                                              ; preds = %89
  %112 = load ptr, ptr %5, align 8, !tbaa !4
  %113 = load i32, ptr %15, align 4, !tbaa !11
  %114 = call i32 @async_read_internal(ptr noundef %112, ptr noundef null, i32 noundef %113)
  br label %122

115:                                              ; preds = %89
  %116 = load ptr, ptr %9, align 8, !tbaa !37
  %117 = load i32, ptr %15, align 4, !tbaa !11
  %118 = call i32 @ring_drain(ptr noundef %116, i32 noundef %117)
  %119 = load i64, ptr %11, align 8, !tbaa !36
  %120 = load ptr, ptr %8, align 8, !tbaa !22
  %121 = getelementptr inbounds nuw %struct.AsyncContext, ptr %120, i32 0, i32 10
  store i64 %119, ptr %121, align 8, !tbaa !39
  br label %122

122:                                              ; preds = %115, %111
  %123 = load ptr, ptr %8, align 8, !tbaa !22
  %124 = getelementptr inbounds nuw %struct.AsyncContext, ptr %123, i32 0, i32 10
  %125 = load i64, ptr %124, align 8, !tbaa !39
  store i64 %125, ptr %4, align 8
  store i32 1, ptr %14, align 4
  call void @llvm.lifetime.end.p0(i64 4, ptr %15) #7
  br label %197

126:                                              ; preds = %79, %70
  %127 = load ptr, ptr %8, align 8, !tbaa !22
  %128 = getelementptr inbounds nuw %struct.AsyncContext, ptr %127, i32 0, i32 11
  %129 = load i64, ptr %128, align 8, !tbaa !34
  %130 = icmp sle i64 %129, 0
  br i1 %130, label %131, label %132

131:                                              ; preds = %126
  store i64 -22, ptr %4, align 8
  store i32 1, ptr %14, align 4
  br label %197

132:                                              ; preds = %126
  %133 = load i64, ptr %11, align 8, !tbaa !36
  %134 = load ptr, ptr %8, align 8, !tbaa !22
  %135 = getelementptr inbounds nuw %struct.AsyncContext, ptr %134, i32 0, i32 11
  %136 = load i64, ptr %135, align 8, !tbaa !34
  %137 = icmp sgt i64 %133, %136
  br i1 %137, label %138, label %139

138:                                              ; preds = %132
  store i64 -22, ptr %4, align 8
  store i32 1, ptr %14, align 4
  br label %197

139:                                              ; preds = %132
  br label %140

140:                                              ; preds = %139
  br label %141

141:                                              ; preds = %140
  br label %142

142:                                              ; preds = %141
  %143 = load ptr, ptr %8, align 8, !tbaa !22
  %144 = getelementptr inbounds nuw %struct.AsyncContext, ptr %143, i32 0, i32 15
  %145 = call i32 @pthread_mutex_lock(ptr noundef %144) #7
  %146 = load ptr, ptr %8, align 8, !tbaa !22
  %147 = getelementptr inbounds nuw %struct.AsyncContext, ptr %146, i32 0, i32 2
  store i32 1, ptr %147, align 8, !tbaa !40
  %148 = load i64, ptr %11, align 8, !tbaa !36
  %149 = load ptr, ptr %8, align 8, !tbaa !22
  %150 = getelementptr inbounds nuw %struct.AsyncContext, ptr %149, i32 0, i32 3
  store i64 %148, ptr %150, align 8, !tbaa !41
  %151 = load ptr, ptr %8, align 8, !tbaa !22
  %152 = getelementptr inbounds nuw %struct.AsyncContext, ptr %151, i32 0, i32 4
  store i32 0, ptr %152, align 8, !tbaa !42
  %153 = load ptr, ptr %8, align 8, !tbaa !22
  %154 = getelementptr inbounds nuw %struct.AsyncContext, ptr %153, i32 0, i32 5
  store i32 0, ptr %154, align 4, !tbaa !43
  %155 = load ptr, ptr %8, align 8, !tbaa !22
  %156 = getelementptr inbounds nuw %struct.AsyncContext, ptr %155, i32 0, i32 6
  store i64 0, ptr %156, align 8, !tbaa !44
  br label %157

157:                                              ; preds = %183, %142
  br label %158

158:                                              ; preds = %157
  %159 = load ptr, ptr %5, align 8, !tbaa !4
  %160 = call i32 @async_check_interrupt(ptr noundef %159)
  %161 = icmp ne i32 %160, 0
  br i1 %161, label %162, label %163

162:                                              ; preds = %158
  store i64 -1414092869, ptr %10, align 8, !tbaa !36
  br label %192

163:                                              ; preds = %158
  %164 = load ptr, ptr %8, align 8, !tbaa !22
  %165 = getelementptr inbounds nuw %struct.AsyncContext, ptr %164, i32 0, i32 5
  %166 = load i32, ptr %165, align 4, !tbaa !43
  %167 = icmp ne i32 %166, 0
  br i1 %167, label %168, label %183

168:                                              ; preds = %163
  %169 = load ptr, ptr %8, align 8, !tbaa !22
  %170 = getelementptr inbounds nuw %struct.AsyncContext, ptr %169, i32 0, i32 6
  %171 = load i64, ptr %170, align 8, !tbaa !44
  %172 = icmp sge i64 %171, 0
  br i1 %172, label %173, label %179

173:                                              ; preds = %168
  %174 = load ptr, ptr %8, align 8, !tbaa !22
  %175 = getelementptr inbounds nuw %struct.AsyncContext, ptr %174, i32 0, i32 6
  %176 = load i64, ptr %175, align 8, !tbaa !44
  %177 = load ptr, ptr %8, align 8, !tbaa !22
  %178 = getelementptr inbounds nuw %struct.AsyncContext, ptr %177, i32 0, i32 10
  store i64 %176, ptr %178, align 8, !tbaa !39
  br label %179

179:                                              ; preds = %173, %168
  %180 = load ptr, ptr %8, align 8, !tbaa !22
  %181 = getelementptr inbounds nuw %struct.AsyncContext, ptr %180, i32 0, i32 6
  %182 = load i64, ptr %181, align 8, !tbaa !44
  store i64 %182, ptr %10, align 8, !tbaa !36
  br label %192

183:                                              ; preds = %163
  %184 = load ptr, ptr %8, align 8, !tbaa !22
  %185 = getelementptr inbounds nuw %struct.AsyncContext, ptr %184, i32 0, i32 14
  %186 = call i32 @pthread_cond_signal(ptr noundef %185) #7
  %187 = load ptr, ptr %8, align 8, !tbaa !22
  %188 = getelementptr inbounds nuw %struct.AsyncContext, ptr %187, i32 0, i32 13
  %189 = load ptr, ptr %8, align 8, !tbaa !22
  %190 = getelementptr inbounds nuw %struct.AsyncContext, ptr %189, i32 0, i32 15
  %191 = call i32 @pthread_cond_wait(ptr noundef %188, ptr noundef %190)
  br label %157

192:                                              ; preds = %179, %162
  %193 = load ptr, ptr %8, align 8, !tbaa !22
  %194 = getelementptr inbounds nuw %struct.AsyncContext, ptr %193, i32 0, i32 15
  %195 = call i32 @pthread_mutex_unlock(ptr noundef %194) #7
  %196 = load i64, ptr %10, align 8, !tbaa !36
  store i64 %196, ptr %4, align 8
  store i32 1, ptr %14, align 4
  br label %197

197:                                              ; preds = %192, %138, %131, %122, %66, %55, %49, %23
  call void @llvm.lifetime.end.p0(i64 4, ptr %13) #7
  call void @llvm.lifetime.end.p0(i64 4, ptr %12) #7
  call void @llvm.lifetime.end.p0(i64 8, ptr %11) #7
  call void @llvm.lifetime.end.p0(i64 8, ptr %10) #7
  call void @llvm.lifetime.end.p0(i64 8, ptr %9) #7
  call void @llvm.lifetime.end.p0(i64 8, ptr %8) #7
  %198 = load i64, ptr %4, align 8
  ret i64 %198
}