; Function Attrs: nounwind uwtable
define internal i64 @async_seek(ptr noundef %0, i64 noundef %1, i32 noundef %2) #0 {
  %4 = getelementptr inbounds nuw i8, ptr %0, i64 16
  %5 = load ptr, ptr %4, align 8, !tbaa !9
  %6 = getelementptr inbounds nuw i8, ptr %5, i64 80
  switch i32 %2, label %83 [
    i32 65536, label %7
    i32 1, label %11
    i32 0, label %15
  ]

7:                                                ; preds = %3
  %8 = getelementptr inbounds nuw i8, ptr %5, i64 72
  %9 = load i64, ptr %8, align 8, !tbaa !29
  tail call void (ptr, i32, ptr, ...) @av_log(ptr noundef nonnull %0, i32 noundef 56, ptr noundef nonnull @.str.6, i64 noundef %9) #7
  %10 = load i64, ptr %8, align 8, !tbaa !29
  br label %83

11:                                               ; preds = %3
  tail call void (ptr, i32, ptr, ...) @av_log(ptr noundef nonnull %0, i32 noundef 56, ptr noundef nonnull @.str.7, i64 noundef %1) #7
  %12 = getelementptr inbounds nuw i8, ptr %5, i64 64
  %13 = load i64, ptr %12, align 8, !tbaa !31
  %14 = add nsw i64 %13, %1
  br label %16

15:                                               ; preds = %3
  tail call void (ptr, i32, ptr, ...) @av_log(ptr noundef nonnull %0, i32 noundef 56, ptr noundef nonnull @.str.7, i64 noundef %1) #7
  br label %16

16:                                               ; preds = %11, %15
  %.065 = phi i64 [ %14, %11 ], [ %1, %15 ]
  %17 = icmp slt i64 %.065, 0
  br i1 %17, label %83, label %18

18:                                               ; preds = %16
  %19 = load ptr, ptr %6, align 8, !tbaa !18
  %20 = tail call i64 @av_fifo_can_read(ptr noundef %19) #7
  %21 = getelementptr inbounds nuw i8, ptr %5, i64 92
  %22 = load i32, ptr %21, align 4, !tbaa !32
  %23 = trunc i64 %20 to i32
  %24 = sub i32 %23, %22
  %25 = getelementptr inbounds nuw i8, ptr %5, i64 64
  %26 = load i64, ptr %25, align 8, !tbaa !31
  %27 = icmp eq i64 %.065, %26
  br i1 %27, label %83, label %28

28:                                               ; preds = %18
  %29 = sext i32 %22 to i64
  %30 = sub nsw i64 %26, %29
  %.not = icmp slt i64 %.065, %30
  br i1 %.not, label %46, label %31

31:                                               ; preds = %28
  %32 = sext i32 %24 to i64
  %33 = add i64 %26, 262144
  %34 = add i64 %33, %32
  %35 = icmp slt i64 %.065, %34
  br i1 %35, label %36, label %46

36:                                               ; preds = %31
  %37 = sub nsw i64 %.065, %26
  %38 = trunc i64 %37 to i32
  %39 = trunc i64 %26 to i32
  tail call void (ptr, i32, ptr, ...) @av_log(ptr noundef nonnull %0, i32 noundef 56, ptr noundef nonnull @.str.8, i64 noundef %.065, i32 noundef %39, i32 noundef %38, i32 noundef %24) #7
  %40 = icmp sgt i32 %38, 0
  br i1 %40, label %41, label %43

41:                                               ; preds = %36
  %42 = tail call fastcc i32 @async_read_internal(ptr noundef nonnull %0, ptr noundef null, i32 noundef %38)
  %.pre = load i64, ptr %25, align 8, !tbaa !31
  br label %83

43:                                               ; preds = %36
  %44 = load i32, ptr %21, align 4, !tbaa !32
  %45 = add nsw i32 %44, %38
  store i32 %45, ptr %21, align 4, !tbaa !32
  store i64 %.065, ptr %25, align 8, !tbaa !31
  br label %83

46:                                               ; preds = %31, %28
  %47 = getelementptr inbounds nuw i8, ptr %5, i64 72
  %48 = load i64, ptr %47, align 8, !tbaa !29
  %49 = icmp slt i64 %48, 1
  %50 = icmp sgt i64 %.065, %48
  %or.cond = or i1 %49, %50
  br i1 %or.cond, label %83, label %51

51:                                               ; preds = %46
  %52 = getelementptr inbounds nuw i8, ptr %5, i64 192
  %53 = tail call i32 @pthread_mutex_lock(ptr noundef nonnull %52) #7
  %54 = getelementptr inbounds nuw i8, ptr %5, i64 16
  store i32 1, ptr %54, align 8, !tbaa !33
  %55 = getelementptr inbounds nuw i8, ptr %5, i64 24
  store i64 %.065, ptr %55, align 8, !tbaa !34
  %56 = getelementptr inbounds nuw i8, ptr %5, i64 32
  %57 = getelementptr inbounds nuw i8, ptr %5, i64 36
  %58 = getelementptr inbounds nuw i8, ptr %5, i64 40
  tail call void @llvm.memset.p0.i64(ptr noundef nonnull align 8 dereferenceable(16) %56, i8 0, i64 16, i1 false)
  %59 = load ptr, ptr %4, align 8, !tbaa !9
  %60 = getelementptr inbounds nuw i8, ptr %59, i64 240
  %61 = load i32, ptr %60, align 8, !tbaa !35
  %.not.i78 = icmp eq i32 %61, 0
  br i1 %.not.i78, label %.lr.ph, label %async_check_interrupt.exit.thread

.lr.ph:                                           ; preds = %51
  %62 = getelementptr inbounds nuw i8, ptr %5, i64 144
  %63 = getelementptr inbounds nuw i8, ptr %5, i64 96
  br label %64

64:                                               ; preds = %.lr.ph, %76
  %65 = phi ptr [ %60, %.lr.ph ], [ %80, %76 ]
  %66 = phi ptr [ %59, %.lr.ph ], [ %79, %76 ]
  %67 = getelementptr inbounds nuw i8, ptr %66, i64 248
  %68 = tail call i32 @ff_check_interrupt(ptr noundef nonnull %67) #7
  %.not6.i = icmp eq i32 %68, 0
  br i1 %.not6.i, label %async_check_interrupt.exit, label %69

69:                                               ; preds = %64
  store i32 1, ptr %65, align 8, !tbaa !35
  br label %async_check_interrupt.exit.thread

async_check_interrupt.exit:                       ; preds = %64
  %.pre.i = load i32, ptr %65, align 8, !tbaa !35
  %.not72 = icmp eq i32 %.pre.i, 0
  br i1 %.not72, label %70, label %async_check_interrupt.exit.thread

70:                                               ; preds = %async_check_interrupt.exit
  %71 = load i32, ptr %57, align 4, !tbaa !36
  %.not73 = icmp eq i32 %71, 0
  br i1 %.not73, label %76, label %72

72:                                               ; preds = %70
  %73 = load i64, ptr %58, align 8, !tbaa !37
  %74 = icmp sgt i64 %73, -1
  br i1 %74, label %75, label %async_check_interrupt.exit.thread

75:                                               ; preds = %72
  store i64 %73, ptr %25, align 8, !tbaa !31
  br label %async_check_interrupt.exit.thread

76:                                               ; preds = %70
  %77 = tail call i32 @pthread_cond_signal(ptr noundef nonnull %62) #7
  %78 = tail call i32 @pthread_cond_wait(ptr noundef nonnull %63, ptr noundef nonnull %52) #7
  %79 = load ptr, ptr %4, align 8, !tbaa !9
  %80 = getelementptr inbounds nuw i8, ptr %79, i64 240
  %81 = load i32, ptr %80, align 8, !tbaa !35
  %.not.i = icmp eq i32 %81, 0
  br i1 %.not.i, label %64, label %async_check_interrupt.exit.thread

async_check_interrupt.exit.thread:                ; preds = %async_check_interrupt.exit, %76, %51, %69, %72, %75
  %.064 = phi i64 [ %73, %75 ], [ %73, %72 ], [ -1414092869, %69 ], [ -1414092869, %51 ], [ -1414092869, %76 ], [ -1414092869, %async_check_interrupt.exit ]
  %82 = tail call i32 @pthread_mutex_unlock(ptr noundef nonnull %52) #7
  br label %83

83:                                               ; preds = %41, %43, %46, %18, %16, %3, %async_check_interrupt.exit.thread, %7
  %.0 = phi i64 [ %10, %7 ], [ %.064, %async_check_interrupt.exit.thread ], [ -22, %3 ], [ -22, %16 ], [ %.065, %18 ], [ -22, %46 ], [ %.065, %43 ], [ %.pre, %41 ]
  ret i64 %.0
}